#include <math.h>
#include <stdio.h>
#include <stdlib.h>
#include <string.h>

int main()
{
	int n,i,j,b;
	int a[20000];
    scanf("%d",&n);
	i=0;
	j=0;
	b=0;
	while(i<n)
	{
		scanf("%d",&a[i]);
		i++;
	}
	i=1;
	printf("%d",a[0]);
	while(i<n)
	{
	    while((j<i)&&(b==0))
		{
			if(a[j]!=a[i]) j++;
			else b=1;
		}
		if(b==0) printf(" %d",a[i]);
		i++;
		j=0;
		b=0;
	}
	return 0;
}

				  
